target datalayout = "e-m:e-p270:32:32-p271:32:32-p272:64:64-i64:64-i128:128-f80:128-n8:16:32:64-S128"
target triple = "x86_64-pc-linux-gnu"

%class.ZValueIterator = type <{ ptr, i32, [4 x i8] }>
%class.ZValue = type { i64 }
%class.ThreadLocalAllocStats = type { i32, i32, i32, i64, i64, i64, i64, i64, i32, i32 }

@_ZN23ZThreadLocalAllocBuffer6_statsE = hidden global ptr null, align 8
@UseTLAB = external global i8, align 1
@ConcGCThreads = external global i32, align 4

; Function Attrs: mustprogress nounwind uwtable
define linkonce_odr hidden noundef i64 @_ZNK6ZValueI17ZPerWorkerStorage21ThreadLocalAllocStatsE10value_addrEj(ptr noundef nonnull align 8 dereferenceable(8) %0, i32 noundef %1) #1 comdat align 2 {
  %3 = alloca ptr, align 8
  %4 = alloca i32, align 4
  store ptr %0, ptr %3, align 8
  store i32 %1, ptr %4, align 4
  %5 = load ptr, ptr %3, align 8
  %6 = getelementptr inbounds %class.ZValue, ptr %5, i32 0, i32 0
  %7 = load i64, ptr %6, align 8
  %8 = load i32, ptr %4, align 4
  %9 = zext i32 %8 to i64
  %10 = mul i64 %9, 4096
  %11 = add i64 %7, %10
  ret i64 %11
}

; Function Attrs: mustprogress nounwind uwtable
define linkonce_odr hidden noundef ptr @_ZN6ZValueI17ZPerWorkerStorage21ThreadLocalAllocStatsE4addrEj(ptr noundef nonnull align 8 dereferenceable(8) %0, i32 noundef %1) #1 comdat align 2 {
  %3 = alloca ptr, align 8
  %4 = alloca i32, align 4
  store ptr %0, ptr %3, align 8
  store i32 %1, ptr %4, align 4
  %5 = load ptr, ptr %3, align 8
  %6 = load i32, ptr %4, align 4
  %7 = call noundef i64 @_ZNK6ZValueI17ZPerWorkerStorage21ThreadLocalAllocStatsE10value_addrEj(ptr noundef nonnull align 8 dereferenceable(8) %5, i32 noundef %6)
  %8 = inttoptr i64 %7 to ptr
  ret ptr %8
}

; Function Attrs: mustprogress nounwind uwtable
define linkonce_odr hidden noundef i32 @_ZN17ZPerWorkerStorage5countEv() #1 comdat align 2 {
  %1 = load i32, ptr @ConcGCThreads, align 4
  ret i32 %1
}

; Function Attrs: mustprogress nounwind uwtable
define linkonce_odr hidden noundef zeroext i1 @_ZN14ZValueIteratorI17ZPerWorkerStorage21ThreadLocalAllocStatsE4nextEPPS1_(ptr noundef nonnull align 8 dereferenceable(12) %0, ptr noundef %1) #1 comdat align 2 {
  %3 = alloca i1, align 1
  %4 = alloca ptr, align 8
  %5 = alloca ptr, align 8
  store ptr %0, ptr %4, align 8
  store ptr %1, ptr %5, align 8
  %6 = load ptr, ptr %4, align 8
  %7 = getelementptr inbounds %class.ZValueIterator, ptr %6, i32 0, i32 1
  %8 = load i32, ptr %7, align 8
  %9 = call noundef i32 @_ZN17ZPerWorkerStorage5countEv()
  %10 = icmp ult i32 %8, %9
  br i1 %10, label %11, label %19

11:                                               ; preds = %2
  %12 = getelementptr inbounds %class.ZValueIterator, ptr %6, i32 0, i32 0
  %13 = load ptr, ptr %12, align 8
  %14 = getelementptr inbounds %class.ZValueIterator, ptr %6, i32 0, i32 1
  %15 = load i32, ptr %14, align 8
  %16 = add i32 %15, 1
  store i32 %16, ptr %14, align 8
  %17 = call noundef ptr @_ZN6ZValueI17ZPerWorkerStorage21ThreadLocalAllocStatsE4addrEj(ptr noundef nonnull align 8 dereferenceable(8) %13, i32 noundef %15)
  %18 = load ptr, ptr %5, align 8
  store ptr %17, ptr %18, align 8
  store i1 true, ptr %3, align 1
  br label %20

19:                                               ; preds = %2
  store i1 false, ptr %3, align 1
  br label %20

20:                                               ; preds = %19, %11
  %21 = load i1, ptr %3, align 1
  ret i1 %21
}

; Function Attrs: mustprogress nounwind uwtable
define linkonce_odr hidden void @_ZN14ZValueIteratorI17ZPerWorkerStorage21ThreadLocalAllocStatsEC2EP6ZValueIS0_S1_E(ptr noundef nonnull align 8 dereferenceable(12) %0, ptr noundef %1) unnamed_addr #1 comdat align 2 {
  %3 = alloca ptr, align 8
  %4 = alloca ptr, align 8
  store ptr %0, ptr %3, align 8
  store ptr %1, ptr %4, align 8
  %5 = load ptr, ptr %3, align 8
  %6 = getelementptr inbounds %class.ZValueIterator, ptr %5, i32 0, i32 0
  %7 = load ptr, ptr %4, align 8
  store ptr %7, ptr %6, align 8
  %8 = getelementptr inbounds %class.ZValueIterator, ptr %5, i32 0, i32 1
  store i32 0, ptr %8, align 8
  ret void
}

; Function Attrs: mustprogress nounwind uwtable
define hidden void @_ZN23ZThreadLocalAllocBuffer18publish_statisticsEv() #1 align 2 {
  %1 = alloca %class.ThreadLocalAllocStats, align 8
  %2 = alloca %class.ZValueIterator, align 8
  %3 = alloca ptr, align 8
  %4 = load i8, ptr @UseTLAB, align 1
  %5 = trunc i8 %4 to i1
  br i1 %5, label %6, label %13

6:                                                ; preds = %0
  call void @_ZN21ThreadLocalAllocStatsC1Ev(ptr noundef nonnull align 8 dereferenceable(64) %1)
  %7 = load ptr, ptr @_ZN23ZThreadLocalAllocBuffer6_statsE, align 8
  call void @_ZN14ZValueIteratorI17ZPerWorkerStorage21ThreadLocalAllocStatsEC2EP6ZValueIS0_S1_E(ptr noundef nonnull align 8 dereferenceable(12) %2, ptr noundef %7)
  br label %8

8:                                                ; preds = %10, %6
  %9 = call noundef zeroext i1 @_ZN14ZValueIteratorI17ZPerWorkerStorage21ThreadLocalAllocStatsE4nextEPPS1_(ptr noundef nonnull align 8 dereferenceable(12) %2, ptr noundef %3)
  br i1 %9, label %10, label %12

10:                                               ; preds = %8
  %11 = load ptr, ptr %3, align 8
  call void @_ZN21ThreadLocalAllocStats6updateERKS_(ptr noundef nonnull align 8 dereferenceable(64) %1, ptr noundef nonnull align 8 dereferenceable(64) %11)
  br label %8, !llvm.loop !9

12:                                               ; preds = %8
  call void @_ZN21ThreadLocalAllocStats7publishEv(ptr noundef nonnull align 8 dereferenceable(64) %1)
  br label %13

13:                                               ; preds = %12, %0
  ret void
}