; Function Attrs: mustprogress nounwind uwtable
define hidden void @_ZN23ZThreadLocalAllocBuffer18publish_statisticsEv() local_unnamed_addr #0 align 2 {
  %1 = alloca %class.ThreadLocalAllocStats, align 8
  %2 = load i8, ptr @UseTLAB, align 1
  %3 = trunc i8 %2 to i1
  br i1 %3, label %4, label %14

4:                                                ; preds = %0
  call void @_ZN21ThreadLocalAllocStatsC1Ev(ptr noundef nonnull align 8 dereferenceable(64) %1) #4
  %5 = load ptr, ptr @_ZN23ZThreadLocalAllocBuffer6_statsE, align 8
  %6 = load i32, ptr @ConcGCThreads, align 4
  %.not = icmp eq i32 %6, 0
  br i1 %.not, label %_ZN14ZValueIteratorI17ZPerWorkerStorage21ThreadLocalAllocStatsE4nextEPPS1_.exit, label %.lr.ph

.lr.ph:                                           ; preds = %4, %.lr.ph
  %indvars.iv = phi i64 [ %indvars.iv.next, %.lr.ph ], [ 0, %4 ]
  %indvars.iv.next = add nuw nsw i64 %indvars.iv, 1
  %7 = load i64, ptr %5, align 8
  %8 = shl nuw nsw i64 %indvars.iv, 12
  %9 = add i64 %7, %8
  %10 = inttoptr i64 %9 to ptr
  call void @_ZN21ThreadLocalAllocStats6updateERKS_(ptr noundef nonnull align 8 dereferenceable(64) %1, ptr noundef nonnull align 8 dereferenceable(64) %10) #4
  %11 = load i32, ptr @ConcGCThreads, align 4
  %12 = zext i32 %11 to i64
  %13 = icmp ult i64 %indvars.iv.next, %12
  br i1 %13, label %.lr.ph, label %_ZN14ZValueIteratorI17ZPerWorkerStorage21ThreadLocalAllocStatsE4nextEPPS1_.exit, !llvm.loop !9

_ZN14ZValueIteratorI17ZPerWorkerStorage21ThreadLocalAllocStatsE4nextEPPS1_.exit: ; preds = %.lr.ph, %4
  call void @_ZN21ThreadLocalAllocStats7publishEv(ptr noundef nonnull align 8 dereferenceable(64) %1) #4
  br label %14

14:                                               ; preds = %_ZN14ZValueIteratorI17ZPerWorkerStorage21ThreadLocalAllocStatsE4nextEPPS1_.exit, %0
  ret void
}